(lp0
(dp1
S'early_peak_error'
p2
cnumpy.core.multiarray
_reconstruct
p3
(cnumpy
ndarray
p4
(I0
tp5
S'b'
p6
tp7
Rp8
(I1
(I0
tp9
cnumpy
dtype
p10
(S'f8'
p11
I0
I1
tp12
Rp13
(I3
S'<'
p14
NNNI-1
I-1
I0
tp15
bI00
S''
p16
tp17
bsS'early_sigma_y'
p18
g3
(g4
(I0
tp19
g6
tp20
Rp21
(I1
(I0
tp22
g13
I00
g16
tp23
bsS'early_sigma_x'
p24
g3
(g4
(I0
tp25
g6
tp26
Rp27
(I1
(I0
tp28
g13
I00
g16
tp29
bsS'early_sigma_x_error'
p30
g3
(g4
(I0
tp31
g6
tp32
Rp33
(I1
(I0
tp34
g13
I00
g16
tp35
bsS'early_run'
p36
g3
(g4
(I0
tp37
g6
tp38
Rp39
(I1
(I0
tp40
g13
I00
g16
tp41
bsS'early_sigma_y_error'
p42
g3
(g4
(I0
tp43
g6
tp44
Rp45
(I1
(I0
tp46
g13
I00
g16
tp47
bsS'early_fom'
p48
g3
(g4
(I0
tp49
g6
tp50
Rp51
(I1
(I0
tp52
g13
I00
g16
tp53
bsS'early_fom_errors'
p54
g3
(g4
(I0
tp55
g6
tp56
Rp57
(I1
(I0
tp58
g13
I00
g16
tp59
bsS'early_lumi'
p60
g3
(g4
(I0
tp61
g6
tp62
Rp63
(I1
(I0
tp64
g13
I00
g16
tp65
bsS'early_peak'
p66
g3
(g4
(I0
tp67
g6
tp68
Rp69
(I1
(I0
tp70
g13
I00
g16
tp71
bsS'early_lumi_error'
p72
g3
(g4
(I0
tp73
g6
tp74
Rp75
(I1
(I0
tp76
g13
I00
g16
tp77
bsa.